target datalayout = "e-m:e-p270:32:32-p271:32:32-p272:64:64-i64:64-i128:128-f80:128-n8:16:32:64-S128"
target triple = "x86_64-pc-linux-gnu"

%class.QFlag = type { i32 }
%class.QList.15 = type { %struct.QArrayDataPointer.18 }
%struct.QArrayDataPointer.18 = type { ptr, ptr, i64 }
%class.QVariant = type { %"struct.QVariant::Private" }
%"struct.QVariant::Private" = type { %union.anon, i64 }
%union.anon = type { ptr, [16 x i8] }
%struct.mac_3gpp_tap_info = type { i8, i16, i16, i8, i8, i32, i32, i8, i8, i16, %struct.nstime_t, i32, [33 x i32], [33 x i32], i8, i8, i16, i16 }
%struct.nstime_t = type { i64, i32 }
%class.QFlags = type { i32 }
%class.QTreeWidgetItem = type <{ ptr, i32, [4 x i8], %class.QList.11, ptr, ptr, ptr, %class.QList.15, %class.QFlags.19, [4 x i8] }>
%class.QList.11 = type { %struct.QArrayDataPointer.14 }
%struct.QArrayDataPointer.14 = type { ptr, ptr, i64 }
%class.QFlags.19 = type { i32 }
%class.MacUETreeWidgetItem = type { %class.QTreeWidgetItem.base, i8, i32, i32, i32, i32, i32, i32, i32, %struct.nstime_t, %struct.nstime_t, i32, i32, i32, i32, i32, %struct.nstime_t, %struct.nstime_t, i32, i32, ptr, ptr, ptr, ptr }
%class.QTreeWidgetItem.base = type <{ ptr, i32, [4 x i8], %class.QList.11, ptr, ptr, ptr, %class.QList.15, %class.QFlags.19 }>

; Function Attrs: mustprogress nounwind uwtable
define linkonce_odr noundef i32 @_ZNK5QFlagcvjEv(ptr noundef nonnull align 4 dereferenceable(4) %0) #2 comdat align 2 {
  %2 = alloca ptr, align 8
  store ptr %0, ptr %2, align 8
  %3 = load ptr, ptr %2, align 8
  %4 = getelementptr inbounds %class.QFlag, ptr %3, i32 0, i32 0
  %5 = load i32, ptr %4, align 4
  ret i32 %5
}

; Function Attrs: mustprogress uwtable
define linkonce_odr void @_ZN15QTreeWidgetItem16setTextAlignmentEii(ptr noundef nonnull align 8 dereferenceable(92) %0, i32 noundef %1, i32 noundef %2) #3 comdat align 2 personality ptr @__gxx_personality_v0 {
  %4 = alloca ptr, align 8
  %5 = alloca i32, align 4
  %6 = alloca i32, align 4
  %7 = alloca %class.QVariant, align 8
  %8 = alloca ptr, align 8
  %9 = alloca i32, align 4
  store ptr %0, ptr %4, align 8
  store i32 %1, ptr %5, align 4
  store i32 %2, ptr %6, align 4
  %10 = load ptr, ptr %4, align 8
  %11 = load i32, ptr %5, align 4
  %12 = load i32, ptr %6, align 4
  call void @_ZN8QVariantC1Ei(ptr noundef nonnull align 8 dereferenceable(32) %7, i32 noundef %12)
  %13 = load ptr, ptr %10, align 8
  %14 = getelementptr inbounds ptr, ptr %13, i64 4
  %15 = load ptr, ptr %14, align 8
  invoke void %15(ptr noundef nonnull align 8 dereferenceable(92) %10, i32 noundef %11, i32 noundef 7, ptr noundef nonnull align 8 dereferenceable(32) %7)
          to label %16 unwind label %17

16:                                               ; preds = %3
  call void @_ZN8QVariantD1Ev(ptr noundef nonnull align 8 dereferenceable(32) %7) #4
  ret void

17:                                               ; preds = %3
  %18 = landingpad { ptr, i32 }
          cleanup
  %19 = extractvalue { ptr, i32 } %18, 0
  store ptr %19, ptr %8, align 8
  %20 = extractvalue { ptr, i32 } %18, 1
  store i32 %20, ptr %9, align 4
  call void @_ZN8QVariantD1Ev(ptr noundef nonnull align 8 dereferenceable(32) %7) #4
  br label %21

21:                                               ; preds = %17
  %22 = load ptr, ptr %8, align 8
  %23 = load i32, ptr %9, align 4
  %24 = insertvalue { ptr, i32 } poison, ptr %22, 0
  %25 = insertvalue { ptr, i32 } %24, i32 %23, 1
  resume { ptr, i32 } %25
}

; Function Attrs: mustprogress nounwind uwtable
define linkonce_odr noundef i32 @_ZNK6QFlagsIN2Qt13AlignmentFlagEEcvjEv(ptr noundef nonnull align 4 dereferenceable(4) %0) #2 comdat align 2 {
  %2 = alloca ptr, align 8
  store ptr %0, ptr %2, align 8
  %3 = load ptr, ptr %2, align 8
  %4 = getelementptr inbounds %class.QFlags, ptr %3, i32 0, i32 0
  %5 = load i32, ptr %4, align 4
  ret i32 %5
}

; Function Attrs: mustprogress nounwind uwtable
define linkonce_odr void @_ZN6QFlagsIN2Qt13AlignmentFlagEEC2E5QFlag(ptr noundef nonnull align 4 dereferenceable(4) %0, i32 %1) unnamed_addr #2 comdat align 2 {
  %3 = alloca %class.QFlag, align 4
  %4 = alloca ptr, align 8
  %5 = getelementptr inbounds %class.QFlag, ptr %3, i32 0, i32 0
  store i32 %1, ptr %5, align 4
  store ptr %0, ptr %4, align 8
  %6 = load ptr, ptr %4, align 8
  %7 = getelementptr inbounds %class.QFlags, ptr %6, i32 0, i32 0
  %8 = call noundef i32 @_ZNK5QFlagcvjEv(ptr noundef nonnull align 4 dereferenceable(4) %3) #4
  store i32 %8, ptr %7, align 4
  ret void
}

; Function Attrs: mustprogress nounwind uwtable
define linkonce_odr void @_ZN5QFlagC2Ei(ptr noundef nonnull align 4 dereferenceable(4) %0, i32 noundef %1) unnamed_addr #2 comdat align 2 {
  %3 = alloca ptr, align 8
  %4 = alloca i32, align 4
  store ptr %0, ptr %3, align 8
  store i32 %1, ptr %4, align 4
  %5 = load ptr, ptr %3, align 8
  %6 = getelementptr inbounds %class.QFlag, ptr %5, i32 0, i32 0
  %7 = load i32, ptr %4, align 4
  store i32 %7, ptr %6, align 4
  ret void
}

; Function Attrs: mustprogress uwtable
define linkonce_odr noundef i32 @_ZNK15QTreeWidgetItem13textAlignmentEi(ptr noundef nonnull align 8 dereferenceable(92) %0, i32 noundef %1) #3 comdat align 2 personality ptr @__gxx_personality_v0 {
  %3 = alloca ptr, align 8
  %4 = alloca i32, align 4
  %5 = alloca %class.QVariant, align 8
  %6 = alloca ptr, align 8
  %7 = alloca i32, align 4
  store ptr %0, ptr %3, align 8
  store i32 %1, ptr %4, align 4
  %8 = load ptr, ptr %3, align 8
  %9 = load i32, ptr %4, align 4
  %10 = load ptr, ptr %8, align 8
  %11 = getelementptr inbounds ptr, ptr %10, i64 3
  %12 = load ptr, ptr %11, align 8
  call void %12(ptr dead_on_unwind writable sret(%class.QVariant) align 8 %5, ptr noundef nonnull align 8 dereferenceable(92) %8, i32 noundef %9, i32 noundef 7)
  %13 = invoke noundef i32 @_ZNK8QVariant5toIntEPb(ptr noundef nonnull align 8 dereferenceable(32) %5, ptr noundef null)
          to label %14 unwind label %15

14:                                               ; preds = %2
  call void @_ZN8QVariantD1Ev(ptr noundef nonnull align 8 dereferenceable(32) %5) #4
  ret i32 %13

15:                                               ; preds = %2
  %16 = landingpad { ptr, i32 }
          cleanup
  %17 = extractvalue { ptr, i32 } %16, 0
  store ptr %17, ptr %6, align 8
  %18 = extractvalue { ptr, i32 } %16, 1
  store i32 %18, ptr %7, align 4
  call void @_ZN8QVariantD1Ev(ptr noundef nonnull align 8 dereferenceable(32) %5) #4
  br label %19

19:                                               ; preds = %15
  %20 = load ptr, ptr %6, align 8
  %21 = load i32, ptr %7, align 4
  %22 = insertvalue { ptr, i32 } poison, ptr %20, 0
  %23 = insertvalue { ptr, i32 } %22, i32 %21, 1
  resume { ptr, i32 } %23
}

; Function Attrs: mustprogress nounwind uwtable
define linkonce_odr noundef zeroext i1 @_ZN19MacUETreeWidgetItem7isMatchEPK17mac_3gpp_tap_info(ptr noundef nonnull align 8 dereferenceable(256) %0, ptr noundef %1) #2 comdat align 2 {
  %3 = alloca ptr, align 8
  %4 = alloca ptr, align 8
  store ptr %0, ptr %3, align 8
  store ptr %1, ptr %4, align 8
  %5 = load ptr, ptr %3, align 8
  %6 = getelementptr inbounds %class.MacUETreeWidgetItem, ptr %5, i32 0, i32 2
  %7 = load i32, ptr %6, align 8
  %8 = load ptr, ptr %4, align 8
  %9 = getelementptr inbounds %struct.mac_3gpp_tap_info, ptr %8, i32 0, i32 1
  %10 = load i16, ptr %9, align 2
  %11 = zext i16 %10 to i32
  %12 = icmp eq i32 %7, %11
  br i1 %12, label %13, label %38

13:                                               ; preds = %2
  %14 = getelementptr inbounds %class.MacUETreeWidgetItem, ptr %5, i32 0, i32 3
  %15 = load i32, ptr %14, align 4
  %16 = load ptr, ptr %4, align 8
  %17 = getelementptr inbounds %struct.mac_3gpp_tap_info, ptr %16, i32 0, i32 3
  %18 = load i8, ptr %17, align 2
  %19 = zext i8 %18 to i32
  %20 = icmp eq i32 %15, %19
  br i1 %20, label %21, label %38

21:                                               ; preds = %13
  %22 = getelementptr inbounds %class.MacUETreeWidgetItem, ptr %5, i32 0, i32 4
  %23 = load i32, ptr %22, align 8
  %24 = load ptr, ptr %4, align 8
  %25 = getelementptr inbounds %struct.mac_3gpp_tap_info, ptr %24, i32 0, i32 2
  %26 = load i16, ptr %25, align 4
  %27 = zext i16 %26 to i32
  %28 = icmp eq i32 %23, %27
  br i1 %28, label %29, label %38

29:                                               ; preds = %21
  %30 = getelementptr inbounds %class.MacUETreeWidgetItem, ptr %5, i32 0, i32 1
  %31 = load i8, ptr %30, align 4
  %32 = zext i8 %31 to i32
  %33 = load ptr, ptr %4, align 8
  %34 = getelementptr inbounds %struct.mac_3gpp_tap_info, ptr %33, i32 0, i32 0
  %35 = load i8, ptr %34, align 8
  %36 = zext i8 %35 to i32
  %37 = icmp eq i32 %32, %36
  br label %38

38:                                               ; preds = %29, %21, %13, %2
  %39 = phi i1 [ false, %21 ], [ false, %13 ], [ false, %2 ], [ %37, %29 ]
  ret i1 %39
}

; Function Attrs: mustprogress nounwind uwtable
define linkonce_odr noundef i32 @_ZNK15QTreeWidgetItem4typeEv(ptr noundef nonnull align 8 dereferenceable(92) %0) #2 comdat align 2 {
  %2 = alloca ptr, align 8
  store ptr %0, ptr %2, align 8
  %3 = load ptr, ptr %2, align 8
  %4 = getelementptr inbounds %class.QTreeWidgetItem, ptr %3, i32 0, i32 1
  %5 = load i32, ptr %4, align 8
  ret i32 %5
}

; Function Attrs: mustprogress uwtable
define noundef i32 @_ZN22LteMacStatisticsDialog9tapPacketEPvP12_packet_infoP12epan_dissectPKvj(ptr noundef %0, ptr noundef %1, ptr noundef %2, ptr noundef %3, i32 noundef %4) #3 align 2 personality ptr @__gxx_personality_v0 {
  %6 = alloca i32, align 4
  %7 = alloca ptr, align 8
  %8 = alloca ptr, align 8
  %9 = alloca ptr, align 8
  %10 = alloca ptr, align 8
  %11 = alloca i32, align 4
  %12 = alloca ptr, align 8
  %13 = alloca ptr, align 8
  %14 = alloca ptr, align 8
  %15 = alloca i32, align 4
  %16 = alloca ptr, align 8
  %17 = alloca ptr, align 8
  %18 = alloca ptr, align 8
  %19 = alloca i32, align 4
  %20 = alloca i32, align 4
  %21 = alloca %class.QFlags, align 4
  %22 = alloca %class.QFlag, align 4
  store ptr %0, ptr %7, align 8
  store ptr %1, ptr %8, align 8
  store ptr %2, ptr %9, align 8
  store ptr %3, ptr %10, align 8
  store i32 %4, ptr %11, align 4
  %23 = load ptr, ptr %7, align 8
  store ptr %23, ptr %12, align 8
  %24 = load ptr, ptr %10, align 8
  store ptr %24, ptr %13, align 8
  %25 = load ptr, ptr %12, align 8
  %26 = icmp ne ptr %25, null
  br i1 %26, label %27, label %30

27:                                               ; preds = %5
  %28 = load ptr, ptr %13, align 8
  %29 = icmp ne ptr %28, null
  br i1 %29, label %31, label %30

30:                                               ; preds = %27, %5
  store i32 0, ptr %6, align 4
  br label %111

31:                                               ; preds = %27
  %32 = load ptr, ptr %12, align 8
  %33 = load ptr, ptr %13, align 8
  call void @_ZN22LteMacStatisticsDialog17updateCommonStatsEPK17mac_3gpp_tap_info(ptr noundef nonnull align 8 dereferenceable(329) %32, ptr noundef %33)
  %34 = load ptr, ptr %13, align 8
  %35 = getelementptr inbounds %struct.mac_3gpp_tap_info, ptr %34, i32 0, i32 3
  %36 = load i8, ptr %35, align 2
  %37 = zext i8 %36 to i32
  %38 = icmp ne i32 %37, 3
  br i1 %38, label %39, label %46

39:                                               ; preds = %31
  %40 = load ptr, ptr %13, align 8
  %41 = getelementptr inbounds %struct.mac_3gpp_tap_info, ptr %40, i32 0, i32 3
  %42 = load i8, ptr %41, align 2
  %43 = zext i8 %42 to i32
  %44 = icmp ne i32 %43, 5
  br i1 %44, label %45, label %46

45:                                               ; preds = %39
  store i32 0, ptr %6, align 4
  br label %111

46:                                               ; preds = %39, %31
  store ptr null, ptr %14, align 8
  store i32 0, ptr %15, align 4
  br label %47

47:                                               ; preds = %70, %46
  %48 = load i32, ptr %15, align 4
  %49 = load ptr, ptr %12, align 8
  %50 = call noundef ptr @_ZN18TapParameterDialog15statsTreeWidgetEv(ptr noundef nonnull align 8 dereferenceable(224) %49)
  %51 = call noundef i32 @_ZNK11QTreeWidget17topLevelItemCountEv(ptr noundef nonnull align 8 dereferenceable(40) %50)
  %52 = icmp slt i32 %48, %51
  br i1 %52, label %53, label %73

53:                                               ; preds = %47
  %54 = load ptr, ptr %12, align 8
  %55 = call noundef ptr @_ZN18TapParameterDialog15statsTreeWidgetEv(ptr noundef nonnull align 8 dereferenceable(224) %54)
  %56 = load i32, ptr %15, align 4
  %57 = call noundef ptr @_ZNK11QTreeWidget12topLevelItemEi(ptr noundef nonnull align 8 dereferenceable(40) %55, i32 noundef %56)
  store ptr %57, ptr %16, align 8
  %58 = load ptr, ptr %16, align 8
  %59 = call noundef i32 @_ZNK15QTreeWidgetItem4typeEv(ptr noundef nonnull align 8 dereferenceable(92) %58)
  %60 = icmp ne i32 %59, 1000
  br i1 %60, label %61, label %62

61:                                               ; preds = %53
  br label %70

62:                                               ; preds = %53
  %63 = load ptr, ptr %16, align 8
  store ptr %63, ptr %17, align 8
  %64 = load ptr, ptr %17, align 8
  %65 = load ptr, ptr %13, align 8
  %66 = call noundef zeroext i1 @_ZN19MacUETreeWidgetItem7isMatchEPK17mac_3gpp_tap_info(ptr noundef nonnull align 8 dereferenceable(256) %64, ptr noundef %65)
  br i1 %66, label %67, label %69

67:                                               ; preds = %62
  %68 = load ptr, ptr %17, align 8
  store ptr %68, ptr %14, align 8
  br label %73

69:                                               ; preds = %62
  br label %70

70:                                               ; preds = %69, %61
  %71 = load i32, ptr %15, align 4
  %72 = add i32 %71, 1
  store i32 %72, ptr %15, align 4
  br label %47, !llvm.loop !6

73:                                               ; preds = %67, %47
  %74 = load ptr, ptr %14, align 8
  %75 = icmp ne ptr %74, null
  br i1 %75, label %108, label %76

76:                                               ; preds = %73
  %77 = call noalias noundef nonnull ptr @_Znwm(i64 noundef 256) #17
  %78 = load ptr, ptr %12, align 8
  %79 = invoke noundef ptr @_ZN18TapParameterDialog15statsTreeWidgetEv(ptr noundef nonnull align 8 dereferenceable(224) %78)
          to label %80 unwind label %103

80:                                               ; preds = %76
  %81 = load ptr, ptr %13, align 8
  invoke void @_ZN19MacUETreeWidgetItemC2EP11QTreeWidgetPK17mac_3gpp_tap_info(ptr noundef nonnull align 8 dereferenceable(256) %77, ptr noundef %79, ptr noundef %81)
          to label %82 unwind label %103

82:                                               ; preds = %80
  store ptr %77, ptr %14, align 8
  store i32 0, ptr %20, align 4
  br label %83

83:                                               ; preds = %100, %82
  %84 = load i32, ptr %20, align 4
  %85 = load ptr, ptr %12, align 8
  %86 = call noundef ptr @_ZN18TapParameterDialog15statsTreeWidgetEv(ptr noundef nonnull align 8 dereferenceable(224) %85)
  %87 = call noundef i32 @_ZNK11QTreeWidget11columnCountEv(ptr noundef nonnull align 8 dereferenceable(40) %86)
  %88 = icmp slt i32 %84, %87
  br i1 %88, label %89, label %107

89:                                               ; preds = %83
  %90 = load ptr, ptr %14, align 8
  %91 = load i32, ptr %20, align 4
  %92 = load ptr, ptr %12, align 8
  %93 = call noundef ptr @_ZN18TapParameterDialog15statsTreeWidgetEv(ptr noundef nonnull align 8 dereferenceable(224) %92)
  %94 = call noundef ptr @_ZNK11QTreeWidget10headerItemEv(ptr noundef nonnull align 8 dereferenceable(40) %93)
  %95 = load i32, ptr %20, align 4
  %96 = call noundef i32 @_ZNK15QTreeWidgetItem13textAlignmentEi(ptr noundef nonnull align 8 dereferenceable(92) %94, i32 noundef %95)
  call void @_ZN5QFlagC2Ei(ptr noundef nonnull align 4 dereferenceable(4) %22, i32 noundef %96) #4
  %97 = getelementptr inbounds %class.QFlag, ptr %22, i32 0, i32 0
  %98 = load i32, ptr %97, align 4
  call void @_ZN6QFlagsIN2Qt13AlignmentFlagEEC2E5QFlag(ptr noundef nonnull align 4 dereferenceable(4) %21, i32 %98) #4
  %99 = call noundef i32 @_ZNK6QFlagsIN2Qt13AlignmentFlagEEcvjEv(ptr noundef nonnull align 4 dereferenceable(4) %21) #4
  call void @_ZN15QTreeWidgetItem16setTextAlignmentEii(ptr noundef nonnull align 8 dereferenceable(92) %90, i32 noundef %91, i32 noundef %99)
  br label %100

100:                                              ; preds = %89
  %101 = load i32, ptr %20, align 4
  %102 = add i32 %101, 1
  store i32 %102, ptr %20, align 4
  br label %83, !llvm.loop !7

103:                                              ; preds = %80, %76
  %104 = landingpad { ptr, i32 }
          cleanup
  %105 = extractvalue { ptr, i32 } %104, 0
  store ptr %105, ptr %18, align 8
  %106 = extractvalue { ptr, i32 } %104, 1
  store i32 %106, ptr %19, align 4
  call void @_ZdlPv(ptr noundef %77) #18
  br label %113

107:                                              ; preds = %83
  br label %108

108:                                              ; preds = %107, %73
  %109 = load ptr, ptr %14, align 8
  %110 = load ptr, ptr %13, align 8
  call void @_ZN19MacUETreeWidgetItem6updateEPK17mac_3gpp_tap_info(ptr noundef nonnull align 8 dereferenceable(256) %109, ptr noundef %110)
  store i32 1, ptr %6, align 4
  br label %111

111:                                              ; preds = %108, %45, %30
  %112 = load i32, ptr %6, align 4
  ret i32 %112

113:                                              ; preds = %103
  %114 = load ptr, ptr %18, align 8
  %115 = load i32, ptr %19, align 4
  %116 = insertvalue { ptr, i32 } poison, ptr %114, 0
  %117 = insertvalue { ptr, i32 } %116, i32 %115, 1
  resume { ptr, i32 } %117
}