; Function Attrs: mustprogress uwtable
define noundef i32 @_ZN22LteMacStatisticsDialog9tapPacketEPvP12_packet_infoP12epan_dissectPKvj(ptr noundef %0, ptr nocapture readnone %1, ptr nocapture readnone %2, ptr noundef %3, i32 %4) #3 align 2 personality ptr @__gxx_personality_v0 {
  %6 = alloca %class.QVariant, align 8
  %7 = alloca %class.QVariant, align 8
  %8 = icmp ne ptr %0, null
  %9 = icmp ne ptr %3, null
  %or.cond = and i1 %8, %9
  br i1 %or.cond, label %10, label %75

10:                                               ; preds = %5
  tail call void @_ZN22LteMacStatisticsDialog17updateCommonStatsEPK17mac_3gpp_tap_info(ptr noundef nonnull align 8 dereferenceable(329) %0, ptr noundef nonnull %3)
  %11 = getelementptr inbounds i8, ptr %3, i64 6
  %12 = load i8, ptr %11, align 2
  switch i8 %12, label %75 [
    i8 3, label %13
    i8 5, label %13
  ]

13:                                               ; preds = %10, %10
  %14 = tail call noundef ptr @_ZN18TapParameterDialog15statsTreeWidgetEv(ptr noundef nonnull align 8 dereferenceable(224) %0)
  %15 = tail call noundef i32 @_ZNK11QTreeWidget17topLevelItemCountEv(ptr noundef nonnull align 8 dereferenceable(40) %14)
  %16 = icmp sgt i32 %15, 0
  br i1 %16, label %.lr.ph, label %._crit_edge

.lr.ph:                                           ; preds = %13
  %17 = getelementptr inbounds i8, ptr %3, i64 2
  %18 = getelementptr inbounds i8, ptr %3, i64 4
  br label %19

19:                                               ; preds = %.lr.ph, %_ZN19MacUETreeWidgetItem7isMatchEPK17mac_3gpp_tap_info.exit.thread
  %.03546 = phi i32 [ 0, %.lr.ph ], [ %46, %_ZN19MacUETreeWidgetItem7isMatchEPK17mac_3gpp_tap_info.exit.thread ]
  %20 = tail call noundef ptr @_ZN18TapParameterDialog15statsTreeWidgetEv(ptr noundef nonnull align 8 dereferenceable(224) %0)
  %21 = tail call noundef ptr @_ZNK11QTreeWidget12topLevelItemEi(ptr noundef nonnull align 8 dereferenceable(40) %20, i32 noundef %.03546)
  %22 = getelementptr inbounds i8, ptr %21, i64 8
  %23 = load i32, ptr %22, align 8
  %.not40 = icmp eq i32 %23, 1000
  br i1 %.not40, label %24, label %_ZN19MacUETreeWidgetItem7isMatchEPK17mac_3gpp_tap_info.exit.thread

24:                                               ; preds = %19
  %25 = getelementptr inbounds i8, ptr %21, i64 96
  %26 = load i32, ptr %25, align 8
  %27 = load i16, ptr %17, align 2
  %28 = zext i16 %27 to i32
  %29 = icmp eq i32 %26, %28
  br i1 %29, label %30, label %_ZN19MacUETreeWidgetItem7isMatchEPK17mac_3gpp_tap_info.exit.thread

30:                                               ; preds = %24
  %31 = getelementptr inbounds i8, ptr %21, i64 100
  %32 = load i32, ptr %31, align 4
  %33 = load i8, ptr %11, align 2
  %34 = zext i8 %33 to i32
  %35 = icmp eq i32 %32, %34
  br i1 %35, label %36, label %_ZN19MacUETreeWidgetItem7isMatchEPK17mac_3gpp_tap_info.exit.thread

36:                                               ; preds = %30
  %37 = getelementptr inbounds i8, ptr %21, i64 104
  %38 = load i32, ptr %37, align 8
  %39 = load i16, ptr %18, align 4
  %40 = zext i16 %39 to i32
  %41 = icmp eq i32 %38, %40
  br i1 %41, label %_ZN19MacUETreeWidgetItem7isMatchEPK17mac_3gpp_tap_info.exit, label %_ZN19MacUETreeWidgetItem7isMatchEPK17mac_3gpp_tap_info.exit.thread

_ZN19MacUETreeWidgetItem7isMatchEPK17mac_3gpp_tap_info.exit: ; preds = %36
  %42 = getelementptr inbounds i8, ptr %21, i64 92
  %43 = load i8, ptr %42, align 4
  %44 = load i8, ptr %3, align 8
  %45 = icmp eq i8 %43, %44
  br i1 %45, label %.loopexit, label %_ZN19MacUETreeWidgetItem7isMatchEPK17mac_3gpp_tap_info.exit.thread

_ZN19MacUETreeWidgetItem7isMatchEPK17mac_3gpp_tap_info.exit.thread: ; preds = %24, %30, %36, %_ZN19MacUETreeWidgetItem7isMatchEPK17mac_3gpp_tap_info.exit, %19
  %46 = add nuw nsw i32 %.03546, 1
  %47 = tail call noundef ptr @_ZN18TapParameterDialog15statsTreeWidgetEv(ptr noundef nonnull align 8 dereferenceable(224) %0)
  %48 = tail call noundef i32 @_ZNK11QTreeWidget17topLevelItemCountEv(ptr noundef nonnull align 8 dereferenceable(40) %47)
  %49 = icmp slt i32 %46, %48
  br i1 %49, label %19, label %._crit_edge, !llvm.loop !16

._crit_edge:                                      ; preds = %_ZN19MacUETreeWidgetItem7isMatchEPK17mac_3gpp_tap_info.exit.thread, %13
  %50 = tail call noalias noundef nonnull dereferenceable(256) ptr @_Znwm(i64 noundef 256) #23
  %51 = invoke noundef ptr @_ZN18TapParameterDialog15statsTreeWidgetEv(ptr noundef nonnull align 8 dereferenceable(224) %0)
          to label %52 unwind label %73

52:                                               ; preds = %._crit_edge
  invoke void @_ZN19MacUETreeWidgetItemC2EP11QTreeWidgetPK17mac_3gpp_tap_info(ptr noundef nonnull align 8 dereferenceable(256) %50, ptr noundef %51, ptr noundef nonnull %3)
          to label %.preheader unwind label %73

.preheader:                                       ; preds = %52
  %53 = tail call noundef ptr @_ZN18TapParameterDialog15statsTreeWidgetEv(ptr noundef nonnull align 8 dereferenceable(224) %0)
  %54 = tail call noundef i32 @_ZNK11QTreeWidget11columnCountEv(ptr noundef nonnull align 8 dereferenceable(40) %53)
  %55 = icmp sgt i32 %54, 0
  br i1 %55, label %.lr.ph48, label %.loopexit

.lr.ph48:                                         ; preds = %.preheader, %_ZN15QTreeWidgetItem16setTextAlignmentEii.exit
  %.047 = phi i32 [ %69, %_ZN15QTreeWidgetItem16setTextAlignmentEii.exit ], [ 0, %.preheader ]
  %56 = call noundef ptr @_ZN18TapParameterDialog15statsTreeWidgetEv(ptr noundef nonnull align 8 dereferenceable(224) %0)
  %57 = call noundef ptr @_ZNK11QTreeWidget10headerItemEv(ptr noundef nonnull align 8 dereferenceable(40) %56)
  call void @llvm.lifetime.start.p0(i64 32, ptr nonnull %7)
  %58 = load ptr, ptr %57, align 8
  %59 = getelementptr inbounds i8, ptr %58, i64 24
  %60 = load ptr, ptr %59, align 8
  call void %60(ptr dead_on_unwind nonnull writable sret(%class.QVariant) align 8 %7, ptr noundef nonnull align 8 dereferenceable(92) %57, i32 noundef %.047, i32 noundef 7)
  %61 = invoke noundef i32 @_ZNK8QVariant5toIntEPb(ptr noundef nonnull align 8 dereferenceable(32) %7, ptr noundef null)
          to label %_ZNK15QTreeWidgetItem13textAlignmentEi.exit unwind label %62

common.resume:                                    ; preds = %73, %67, %62
  %common.resume.op = phi { ptr, i32 } [ %63, %62 ], [ %68, %67 ], [ %74, %73 ]
  resume { ptr, i32 } %common.resume.op

62:                                               ; preds = %.lr.ph48
  %63 = landingpad { ptr, i32 }
          cleanup
  call void @_ZN8QVariantD1Ev(ptr noundef nonnull align 8 dereferenceable(32) %7) #22
  br label %common.resume

_ZNK15QTreeWidgetItem13textAlignmentEi.exit:      ; preds = %.lr.ph48
  call void @_ZN8QVariantD1Ev(ptr noundef nonnull align 8 dereferenceable(32) %7) #22
  call void @llvm.lifetime.end.p0(i64 32, ptr nonnull %7)
  call void @llvm.lifetime.start.p0(i64 32, ptr nonnull %6)
  call void @_ZN8QVariantC1Ei(ptr noundef nonnull align 8 dereferenceable(32) %6, i32 noundef %61)
  %64 = load ptr, ptr %50, align 8
  %65 = getelementptr inbounds i8, ptr %64, i64 32
  %66 = load ptr, ptr %65, align 8
  invoke void %66(ptr noundef nonnull align 8 dereferenceable(92) %50, i32 noundef %.047, i32 noundef 7, ptr noundef nonnull align 8 dereferenceable(32) %6)
          to label %_ZN15QTreeWidgetItem16setTextAlignmentEii.exit unwind label %67

67:                                               ; preds = %_ZNK15QTreeWidgetItem13textAlignmentEi.exit
  %68 = landingpad { ptr, i32 }
          cleanup
  call void @_ZN8QVariantD1Ev(ptr noundef nonnull align 8 dereferenceable(32) %6) #22
  br label %common.resume

_ZN15QTreeWidgetItem16setTextAlignmentEii.exit:   ; preds = %_ZNK15QTreeWidgetItem13textAlignmentEi.exit
  call void @_ZN8QVariantD1Ev(ptr noundef nonnull align 8 dereferenceable(32) %6) #22
  call void @llvm.lifetime.end.p0(i64 32, ptr nonnull %6)
  %69 = add nuw nsw i32 %.047, 1
  %70 = call noundef ptr @_ZN18TapParameterDialog15statsTreeWidgetEv(ptr noundef nonnull align 8 dereferenceable(224) %0)
  %71 = call noundef i32 @_ZNK11QTreeWidget11columnCountEv(ptr noundef nonnull align 8 dereferenceable(40) %70)
  %72 = icmp slt i32 %69, %71
  br i1 %72, label %.lr.ph48, label %.loopexit, !llvm.loop !17

73:                                               ; preds = %52, %._crit_edge
  %74 = landingpad { ptr, i32 }
          cleanup
  tail call void @_ZdlPv(ptr noundef nonnull %50) #24
  br label %common.resume

.loopexit:                                        ; preds = %_ZN19MacUETreeWidgetItem7isMatchEPK17mac_3gpp_tap_info.exit, %_ZN15QTreeWidgetItem16setTextAlignmentEii.exit, %.preheader
  %.1 = phi ptr [ %50, %.preheader ], [ %50, %_ZN15QTreeWidgetItem16setTextAlignmentEii.exit ], [ %21, %_ZN19MacUETreeWidgetItem7isMatchEPK17mac_3gpp_tap_info.exit ]
  call void @_ZN19MacUETreeWidgetItem6updateEPK17mac_3gpp_tap_info(ptr noundef nonnull align 8 dereferenceable(256) %.1, ptr noundef nonnull %3)
  br label %75

75:                                               ; preds = %10, %5, %.loopexit
  %.033 = phi i32 [ 1, %.loopexit ], [ 0, %5 ], [ 0, %10 ]
  ret i32 %.033
}